(lp0
(lp1
(lp2
S'YAL024C'
p3
aS'NP_009378'
p4
aa(dp5
S'2'
p6
(lp7
S'33-170'
p8
aS'1227-1467'
p9
asaa(lp10
(lp11
S'YAL038W'
p12
aS'NP_009362'
p13
aa(dp14
g6
(lp15
S'3-501'
p16
asaa(lp17
(lp18
S'YAL040C'
p19
aS'NP_009360'
p20
aa(dp21
g6
(lp22
S'97-219'
p23
asaa(lp24
(lp25
S'YAR019C'
p26
aS'NP_009411'
p27
aa(dp28
S'3'
p29
(lp30
S'281-363'
p31
asg6
(lp32
S'27-274'
p33
asaa(lp34
(lp35
S'YBL016W'
p36
aS'NP_009537'
p37
aa(dp38
g6
(lp39
S'122-418'
p40
asaa(lp41
(lp42
S'YBR126C'
p43
aS'NP_009684'
p44
aa(dp45
g6
(lp46
S'5-506'
p47
asaa(lp48
(lp49
S'YBR160W'
p50
aS'NP_009718'
p51
aa(dp52
g6
(lp53
S'186-483'
p54
asaa(lp55
(lp56
S'YBR196C'
p57
aS'NP_009755'
p58
aa(dp59
g6
(lp60
S'51-610'
p61
asaa(lp62
(lp63
S'YCR012W'
p64
aS'NP_009938'
p65
aa(dp66
g6
(lp67
S'3-416'
p68
asaa(lp69
(lp70
S'YDL042C'
p71
aS'NP_010242'
p72
aa(dp73
g6
(lp74
S'246-535'
p75
asaa(lp76
(lp77
S'YDL056W'
p78
aS'NP_010227'
p79
aa(dp80
g6
(lp81
S'6-131'
p82
asaa(lp83
(lp84
S'YDL159W'
p85
aS'NP_010122'
p86
aa(dp87
g29
(lp88
S'211-487'
p89
asg6
(lp90
S'8-210'
p91
asaa(lp92
(lp93
S'YDR001C'
p94
aS'NP_010284'
p95
aa(dp96
g6
(lp97
S'74-752'
p98
asaa(lp99
(lp100
S'YDR050C'
p101
aS'NP_010335'
p102
aa(dp103
g6
(lp104
S'33-259'
p105
asaa(lp106
(lp107
S'YDR074W'
p108
aS'NP_010359'
p109
aa(dp110
g6
(lp111
S'2-911'
p112
asaa(lp113
(lp114
S'YDR103W'
p115
aS'NP_010388'
p116
aa(dp117
g29
(lp118
S'250-345'
p119
asg6
(lp120
S'183-238'
p121
asS'5'
p122
(lp123
S'755-911'
p124
asS'4'
p125
(lp126
S'473-524'
p127
asS'6'
p128
(lp129
S'604-754'
p130
asaa(lp131
(lp132
S'YDR113C'
p133
aS'NP_010398'
p134
aa(dp135
g29
(lp136
S'183-404'
p137
asg6
(lp138
S'3-182'
p139
asaa(lp140
(lp141
S'YDR146C'
p142
aS'NP_010430'
p143
aa(dp144
g6
(lp145
S'570-679'
p146
asaa(lp147
(lp148
S'YER111C'
p149
aS'NP_011036'
p150
aa(dp151
g6
(lp152
S'49-175'
p153
asaa(lp154
(lp155
S'YER167W'
p156
aS'NP_011094'
p157
aa(dp158
g6
(lp159
S'16-932'
p160
asaa(lp161
(lp162
S'YFL026W'
p163
aS'NP_116627'
p164
aa(dp165
g29
(lp166
S'141-149'
p167
aS'222-231'
p168
aS'300-314'
p169
aS'363-505'
p170
asg6
(lp171
S'68-115'
p172
aS'170-197'
p173
aS'255-271'
p174
aS'335-341'
p175
asaa(lp176
(lp177
S'YFR028C'
p178
aS'NP_116684'
p179
aa(dp180
g6
(lp181
S'2-331'
p182
asaa(lp183
(lp184
S'YFR053C'
p185
aS'NP_116711'
p186
aa(dp187
g6
(lp188
S'22-474'
p189
asaa(lp190
(lp191
S'YGL003C'
p192
aS'NP_011512'
p193
aa(dp194
g29
(lp195
S'2-289'
p196
aS'585-597'
p197
asg6
(lp198
S'290-584'
p199
asaa(lp200
(lp201
S'YGL116W'
p202
aS'NP_011399'
p203
aa(dp204
g29
(lp205
S'269-576'
p206
asg6
(lp207
S'2-268'
p208
aS'577-609'
p209
asaa(lp210
(lp211
S'YGL190C'
p212
aS'NP_011325'
p213
aa(dp214
g6
(lp215
S'24-65'
p216
aS'84-125'
p217
aS'184-222'
p218
aS'233-273'
p219
aS'292-330'
p220
aS'347-388'
p221
aS'501-531'
p222
asaa(lp223
(lp224
S'YGR098C'
p225
aS'NP_011612'
p226
aa(dp227
g29
(lp228
S'2-1204'
p229
asg6
(lp230
S'1205-1636'
p231
asaa(lp232
(lp233
S'YGR240C'
p234
aS'NP_011756'
p235
aa(dp236
g6
(lp237
S'2-994'
p238
asaa(lp239
(lp240
S'YGR254W'
p241
aS'NP_011770'
p242
aa(dp243
g6
(lp244
S'30-464'
p245
asaa(lp246
(lp247
S'YHL007C'
p248
aS'NP_011856'
p249
aa(dp250
g29
(lp251
S'919-990'
p252
asg6
(lp253
S'667-918'
p254
asaa(lp255
(lp256
S'YHR005C'
p257
aS'NP_011868'
p258
aa(dp259
g6
(lp260
S'2-473'
p261
asaa(lp262
(lp263
S'YHR084W'
p264
aS'NP_011952'
p265
aa(dp266
g6
(lp267
S'58-168'
p268
asaa(lp269
(lp270
S'YHR163W'
p271
aS'NP_012033'
p272
aa(dp273
g6
(lp274
S'29-285'
p275
asaa(lp276
(lp277
S'YHR183W'
p278
aS'NP_012053'
p279
aa(dp280
g6
(lp281
S'2-489'
p282
asaa(lp283
(lp284
S'YIL015W'
p285
aS'NP_012249'
p286
aa(dp287
g6
(lp288
S'63-392'
p289
asaa(lp290
(lp291
S'YIL155C'
p292
aS'NP_012111'
p293
aa(dp294
g6
(lp295
S'46-661'
p296
asaa(lp297
(lp298
S'YJL030W'
p299
aS'NP_012504'
p300
aa(dp301
g6
(lp302
S'9-193'
p303
asaa(lp304
(lp305
S'YJL076W'
p306
aS'NP_012459'
p307
aa(dp308
g6
(lp309
S'2-360'
p310
asaa(lp311
(lp312
S'YJL121C'
p313
aS'NP_012414'
p314
aa(dp315
g6
(lp316
S'2-239'
p317
asaa(lp318
(lp319
S'YJL157C'
p320
aS'NP_012378'
p321
aa(dp322
g29
(lp323
S'227-277'
p324
asg6
(lp325
S'20-226'
p326
asg125
(lp327
S'278-422'
p328
asaa(lp329
(lp330
S'YJL194W'
p331
aS'NP_012341'
p332
aa(dp333
g6
(lp334
S'6-92'
p335
asaa(lp336
(lp337
S'YJR009C'
p338
aS'NP_012542'
p339
aa(dp340
g6
(lp341
S'3-332'
p342
asaa(lp343
(lp344
S'YJR086W'
p345
aS'NP_012619'
p346
aa(dp347
g6
(lp348
S'2-111'
p349
asaa(lp350
(lp351
S'YKL035W'
p352
aS'NP_012889'
p353
aa(dp354
g6
(lp355
S'17-499'
p356
asaa(lp357
(lp358
S'YKL060C'
p359
aS'NP_012863'
p360
aa(dp361
g6
(lp362
S'3-361'
p363
asaa(lp364
(lp365
S'YKL152C'
p366
aS'NP_012770'
p367
aa(dp368
g6
(lp369
S'18-263'
p370
asaa(lp371
(lp372
S'YLR044C'
p373
aS'NP_013145'
p374
aa(dp375
g6
(lp376
S'3-564'
p377
asaa(lp378
(lp379
S'YLR079W'
p380
aS'NP_013180'
p381
aa(dp382
g29
(lp383
S'277-350'
p384
asg6
(lp385
S'31-130'
p386
asaa(lp387
(lp388
S'YLR362W'
p389
aS'NP_013466'
p390
aa(dp391
g29
(lp392
S'487-800'
p393
asg6
(lp394
S'33-108'
p395
asaa(lp396
(lp397
S'YLR452C'
p398
aS'NP_013557'
p399
aa(dp400
g6
(lp401
S'459-733'
p402
asaa(lp403
(lp404
S'YML064C'
p405
aS'NP_013647'
p406
aa(dp407
g6
(lp408
S'56-284'
p409
asaa(lp410
(lp411
S'YMR001C'
p412
aS'NP_013714'
p413
aa(dp414
g29
(lp415
S'93-348'
p416
asg6
(lp417
S'2-92'
p418
asaa(lp419
(lp420
S'YMR043W'
p421
aS'NP_013757'
p422
aa(dp423
g6
(lp424
S'26-80'
p425
asaa(lp426
(lp427
S'YMR055C'
p428
aS'NP_013771'
p429
aa(dp430
g6
(lp431
S'41-258'
p432
asaa(lp433
(lp434
S'YMR105C'
p435
aS'NP_013823'
p436
aa(dp437
g6
(lp438
S'2-571'
p439
asaa(lp440
(lp441
S'YNL216W'
p442
aS'NP_014183'
p443
aa(dp444
g29
(lp445
S'463-611'
p446
asg6
(lp447
S'376-428'
p448
asaa(lp449
(lp450
S'YNL241C'
p451
aS'NP_014158'
p452
aa(dp453
g6
(lp454
S'11-516'
p455
asaa(lp456
(lp457
S'YOL086C'
p458
aS'NP_014555'
p459
aa(dp460
g6
(lp461
S'100-445'
p462
asaa(lp463
(lp464
S'YOR095C'
p465
aS'NP_014738'
p466
aa(dp467
g6
(lp468
S'17-280'
p469
asaa(lp470
(lp471
S'YOR212W'
p472
aS'NP_014855'
p473
aa(dp474
g6
(lp475
S'93-434'
p476
asaa(lp477
(lp478
S'YPL256C'
p479
aS'NP_015067'
p480
aa(dp481
g6
(lp482
S'63-197'
p483
asaa(lp484
(lp485
S'YPR074C'
p486
aS'NP_015399'
p487
aa(dp488
g6
(lp489
S'3-680'
p490
asaa(lp491
(lp492
S'YPR119W'
p493
aS'NP_015444'
p494
aa(dp495
g29
(lp496
S'227-478'
p497
asg6
(lp498
S'2-66'
p499
asaa(lp500
(lp501
S'YPR120C'
p502
aS'NP_015445'
p503
aa(dp504
g29
(lp505
S'173-301'
p506
aS'304-423'
p507
asg6
(lp508
S'2-172'
p509
asaa.